target datalayout = "e-m:e-p270:32:32-p271:32:32-p272:64:64-i64:64-i128:128-f80:128-n8:16:32:64-S128"
target triple = "x86_64-pc-linux-gnu"

%struct.settings = type { i64, i32, i32, i32, ptr, i32, i32, i32, ptr, ptr, i32, double, i32, i32, i32, i8, i32, i32, i8, i32, i32, i32, i32, i32, i32, i8, i8, i8, i8, i8, i8, i8, i32, i32, double, double, i32, i32, i8, i32, i8, i8, ptr, i32, i32, i32, i32, double, double, i32, i8, i32, i32, i32, i32, i32, i8, i8, i8, ptr, i32, i32, i32, i32, i32, i32, i32, i32, i32, i32, double, i8, i32, i32, ptr, i32 }
%struct.slab_automove = type { ptr, i32, i32, double, [64 x %struct.item_stats_automove], [64 x %struct.item_stats_automove], [64 x %struct.slab_stats_automove], [64 x %struct.slab_stats_automove] }
%struct.item_stats_automove = type { i64, i64, i32 }
%struct.slab_stats_automove = type { i32, i32, i64, i64 }

; Function Attrs: nounwind uwtable
define dso_local ptr @slab_automove_init(ptr noundef %0) #0 {
  %2 = alloca ptr, align 8
  %3 = alloca ptr, align 8
  %4 = alloca i32, align 4
  %5 = alloca double, align 8
  %6 = alloca ptr, align 8
  %7 = alloca i32, align 4
  store ptr %0, ptr %3, align 8, !tbaa !4
  call void @llvm.lifetime.start.p0(i64 4, ptr %4) #7
  %8 = load ptr, ptr %3, align 8, !tbaa !4
  %9 = getelementptr inbounds nuw %struct.settings, ptr %8, i32 0, i32 36
  %10 = load i32, ptr %9, align 8, !tbaa !9
  store i32 %10, ptr %4, align 4, !tbaa !17
  call void @llvm.lifetime.start.p0(i64 8, ptr %5) #7
  %11 = load ptr, ptr %3, align 8, !tbaa !4
  %12 = getelementptr inbounds nuw %struct.settings, ptr %11, i32 0, i32 34
  %13 = load double, ptr %12, align 8, !tbaa !18
  store double %13, ptr %5, align 8, !tbaa !19
  call void @llvm.lifetime.start.p0(i64 8, ptr %6) #7
  %14 = call noalias ptr @calloc(i64 noundef 1, i64 noundef 6168) #8
  store ptr %14, ptr %6, align 8, !tbaa !20
  %15 = load ptr, ptr %6, align 8, !tbaa !20
  %16 = icmp eq ptr %15, null
  br i1 %16, label %17, label %18

17:                                               ; preds = %1
  store ptr null, ptr %2, align 8
  store i32 1, ptr %7, align 4
  br label %45

18:                                               ; preds = %1
  %19 = load i32, ptr %4, align 4, !tbaa !17
  %20 = mul i32 %19, 64
  %21 = zext i32 %20 to i64
  %22 = call noalias ptr @calloc(i64 noundef %21, i64 noundef 32) #8
  %23 = load ptr, ptr %6, align 8, !tbaa !20
  %24 = getelementptr inbounds nuw %struct.slab_automove, ptr %23, i32 0, i32 0
  store ptr %22, ptr %24, align 8, !tbaa !21
  %25 = load i32, ptr %4, align 4, !tbaa !17
  %26 = load ptr, ptr %6, align 8, !tbaa !20
  %27 = getelementptr inbounds nuw %struct.slab_automove, ptr %26, i32 0, i32 1
  store i32 %25, ptr %27, align 8, !tbaa !24
  %28 = load double, ptr %5, align 8, !tbaa !19
  %29 = load ptr, ptr %6, align 8, !tbaa !20
  %30 = getelementptr inbounds nuw %struct.slab_automove, ptr %29, i32 0, i32 3
  store double %28, ptr %30, align 8, !tbaa !25
  %31 = load ptr, ptr %6, align 8, !tbaa !20
  %32 = getelementptr inbounds nuw %struct.slab_automove, ptr %31, i32 0, i32 0
  %33 = load ptr, ptr %32, align 8, !tbaa !21
  %34 = icmp eq ptr %33, null
  br i1 %34, label %35, label %37

35:                                               ; preds = %18
  %36 = load ptr, ptr %6, align 8, !tbaa !20
  call void @free(ptr noundef %36) #7
  store ptr null, ptr %2, align 8
  store i32 1, ptr %7, align 4
  br label %45

37:                                               ; preds = %18
  %38 = load ptr, ptr %6, align 8, !tbaa !20
  %39 = getelementptr inbounds nuw %struct.slab_automove, ptr %38, i32 0, i32 4
  %40 = getelementptr inbounds [64 x %struct.item_stats_automove], ptr %39, i64 0, i64 0
  call void @fill_item_stats_automove(ptr noundef %40)
  %41 = load ptr, ptr %6, align 8, !tbaa !20
  %42 = getelementptr inbounds nuw %struct.slab_automove, ptr %41, i32 0, i32 6
  %43 = getelementptr inbounds [64 x %struct.slab_stats_automove], ptr %42, i64 0, i64 0
  call void @fill_slab_stats_automove(ptr noundef %43)
  %44 = load ptr, ptr %6, align 8, !tbaa !20
  store ptr %44, ptr %2, align 8
  store i32 1, ptr %7, align 4
  br label %45

45:                                               ; preds = %37, %35, %17
  call void @llvm.lifetime.end.p0(i64 8, ptr %6) #7
  call void @llvm.lifetime.end.p0(i64 8, ptr %5) #7
  call void @llvm.lifetime.end.p0(i64 4, ptr %4) #7
  %46 = load ptr, ptr %2, align 8
  ret ptr %46
}