; Function Attrs: nounwind uwtable
define dso_local noundef ptr @slab_automove_init(ptr noundef readonly captures(none) %0) local_unnamed_addr #0 {
  %2 = getelementptr inbounds nuw i8, ptr %0, i64 168
  %3 = load i32, ptr %2, align 8, !tbaa !4
  %4 = getelementptr inbounds nuw i8, ptr %0, i64 152
  %5 = load double, ptr %4, align 8, !tbaa !15
  %6 = tail call noalias dereferenceable_or_null(6168) ptr @calloc(i64 noundef 1, i64 noundef 6168) #9
  %7 = icmp eq ptr %6, null
  br i1 %7, label %19, label %8

8:                                                ; preds = %1
  %9 = shl i32 %3, 6
  %10 = zext i32 %9 to i64
  %11 = tail call noalias ptr @calloc(i64 noundef %10, i64 noundef 32) #9
  store ptr %11, ptr %6, align 8, !tbaa !16
  %12 = getelementptr inbounds nuw i8, ptr %6, i64 8
  store i32 %3, ptr %12, align 8, !tbaa !19
  %13 = getelementptr inbounds nuw i8, ptr %6, i64 16
  store double %5, ptr %13, align 8, !tbaa !20
  %14 = icmp eq ptr %11, null
  br i1 %14, label %15, label %16

15:                                               ; preds = %8
  tail call void @free(ptr noundef nonnull %6) #10
  br label %19

16:                                               ; preds = %8
  %17 = getelementptr inbounds nuw i8, ptr %6, i64 24
  tail call void @fill_item_stats_automove(ptr noundef nonnull %17) #10
  %18 = getelementptr inbounds nuw i8, ptr %6, i64 3096
  tail call void @fill_slab_stats_automove(ptr noundef nonnull %18) #10
  br label %19

19:                                               ; preds = %1, %16, %15
  %.0 = phi ptr [ null, %15 ], [ %6, %16 ], [ null, %1 ]
  ret ptr %.0
}